ccopy_reg
_reconstructor
p0
(c__main__
stack
p1
c__builtin__
list
p2
(lp3
F0.6000000000000001
aF0.08984567901234569
aF-0.32592684097080804
aF0.3373596809289614
aF0.5972968991096528
aF0.5510282331700056
aF-0.6720497793679803
aF-0.7971608284400409
aF0.9001487284704641
aF-0.9344018713415378
atp4
Rp5
.