ccopy_reg
_reconstructor
p0
(c__main__
stack
p1
c__builtin__
list
p2
(lp3
F0.05196405426421569
aF-0.22173474877386656
aF-0.04363684875790286
aF0.08653756748526642
aF0.11913480341910943
aF-0.4347979058511491
aF0.33620638818807647
aF0.014105890390872733
aF-0.4160467828469383
aF-0.025712139231121256
atp4
Rp5
.