(lp0
F0.4166666666666667
aF-0.6999999999999998
aF-0.6999999999999998
aF-0.6999999999999998
aF-0.35
aF-0.9099999999999998
aF-0.6999999999999998
aF-0.6999999999999998
aF-0.6999999999999998
aF-0.6999999999999998
a.